; Function Attrs: mustprogress nofree norecurse nosync nounwind willreturn memory(argmem: readwrite) uwtable
define dso_local void @_ZN4llvm8MCSymbol16setVariableValueEPKNS_6MCExprE(ptr nocapture noundef nonnull align 8 dereferenceable(32) %0, ptr noundef %1) local_unnamed_addr #1 align 2 {
  %3 = getelementptr inbounds nuw i8, ptr %0, i64 24
  store ptr %1, ptr %3, align 8
  %4 = getelementptr inbounds nuw i8, ptr %0, i64 8
  %5 = load i64, ptr %4, align 8
  %6 = and i64 %5, -28673
  %7 = or disjoint i64 %6, 8192
  store i64 %7, ptr %4, align 8
  store ptr null, ptr %0, align 8
  ret void
}